target datalayout = "e-m:e-p270:32:32-p271:32:32-p272:64:64-i64:64-i128:128-f80:128-n8:16:32:64-S128"
target triple = "x86_64-pc-linux-gnu"

%struct.H5VL_loc_params_t = type { i32, i32, %union.anon }
%union.anon = type { %struct.H5VL_loc_by_idx }
%struct.H5VL_loc_by_idx = type { ptr, i32, i32, i64, i64 }
%struct.H5VL_link_specific_args_t = type { i32, %union.anon.7 }
%union.anon.7 = type { %struct.H5VL_link_iterate_args_t }
%struct.H5VL_link_iterate_args_t = type { i8, i32, i32, ptr, ptr, ptr }
%struct.anon.8 = type { ptr }

@H5_libterm_g = external global i8, align 1
@.str = private unnamed_addr constant [97 x i8] c"generated/home/dtcxzyw/WorkSpace/Projects/compilers/llvm-opt-benchmark/bench/hdf5/hdf5/src/H5L.c\00", align 1
@H5L_init_g = external global i8, align 1
@H5E_CANTSET_g = external global i64, align 8
@H5E_ARGS_g = external global i64, align 8
@H5E_BADVALUE_g = external global i64, align 8
@H5E_LINK_g = external global i64, align 8
@H5P_LST_DATASET_XFER_ID_g = external global i64, align 8
@H5E_CANTGET_g = external global i64, align 8
@.str.65 = private unnamed_addr constant [24 x i8] c"unable to get link info\00", align 1
@.str.98 = private unnamed_addr constant [34 x i8] c"can't set object access arguments\00", align 1
@__func__.H5L__exists_api_common = private unnamed_addr constant [23 x i8] c"H5L__exists_api_common\00", align 1
@.str.107 = private unnamed_addr constant [35 x i8] c"invalid pointer for link existence\00", align 1

; Function Attrs: nounwind uwtable
define internal i32 @H5L__exists_api_common(i64 noundef %0, ptr noundef %1, ptr noundef %2, i64 noundef %3, ptr noundef %4, ptr noundef %5) #0 {
  %7 = alloca i64, align 8
  %8 = alloca ptr, align 8
  %9 = alloca ptr, align 8
  %10 = alloca i64, align 8
  %11 = alloca ptr, align 8
  %12 = alloca ptr, align 8
  %13 = alloca ptr, align 8
  %14 = alloca ptr, align 8
  %15 = alloca %struct.H5VL_link_specific_args_t, align 8
  %16 = alloca %struct.H5VL_loc_params_t, align 8
  %17 = alloca i32, align 4
  %18 = alloca i8, align 1
  store i64 %0, ptr %7, align 8, !tbaa !3
  store ptr %1, ptr %8, align 8, !tbaa !7
  store ptr %2, ptr %9, align 8, !tbaa !35
  store i64 %3, ptr %10, align 8, !tbaa !3
  store ptr %4, ptr %11, align 8, !tbaa !22
  store ptr %5, ptr %12, align 8, !tbaa !23
  call void @llvm.lifetime.start.p0(i64 8, ptr %13) #8
  store ptr null, ptr %13, align 8, !tbaa !10
  call void @llvm.lifetime.start.p0(i64 8, ptr %14) #8
  %19 = load ptr, ptr %12, align 8, !tbaa !23
  %20 = icmp ne ptr %19, null
  br i1 %20, label %21, label %23

21:                                               ; preds = %6
  %22 = load ptr, ptr %12, align 8, !tbaa !23
  br label %24

23:                                               ; preds = %6
  br label %24

24:                                               ; preds = %23, %21
  %25 = phi ptr [ %22, %21 ], [ %13, %23 ]
  store ptr %25, ptr %14, align 8, !tbaa !23
  call void @llvm.lifetime.start.p0(i64 48, ptr %15) #8
  call void @llvm.lifetime.start.p0(i64 40, ptr %16) #8
  call void @llvm.lifetime.start.p0(i64 4, ptr %17) #8
  store i32 0, ptr %17, align 4, !tbaa !12
  call void @llvm.lifetime.start.p0(i64 1, ptr %18) #8
  store i8 0, ptr %18, align 1, !tbaa !14
  %26 = load i8, ptr @H5L_init_g, align 1, !tbaa !14, !range !16, !noundef !17
  %27 = trunc i8 %26 to i1
  br i1 %27, label %32, label %28

28:                                               ; preds = %24
  %29 = load i8, ptr @H5_libterm_g, align 1, !tbaa !14, !range !16, !noundef !17
  %30 = trunc i8 %29 to i1
  %31 = xor i1 %30, true
  br label %32

32:                                               ; preds = %28, %24
  %33 = phi i1 [ true, %24 ], [ %31, %28 ]
  %34 = xor i1 %33, true
  %35 = xor i1 %34, true
  %36 = zext i1 %35 to i32
  %37 = sext i32 %36 to i64
  %38 = call i64 @llvm.expect.i64(i64 %37, i64 1)
  %39 = icmp ne i64 %38, 0
  br i1 %39, label %40, label %120

40:                                               ; preds = %32
  %41 = load ptr, ptr %9, align 8, !tbaa !35
  %42 = icmp eq ptr null, %41
  br i1 %42, label %43, label %62

43:                                               ; preds = %40
  br label %44

44:                                               ; preds = %43
  br label %45

45:                                               ; preds = %44
  br label %46

46:                                               ; preds = %45
  %47 = load i64, ptr @H5E_ARGS_g, align 8, !tbaa !3
  %48 = load i64, ptr @H5E_BADVALUE_g, align 8, !tbaa !3
  %49 = call i32 (ptr, ptr, i32, i64, i64, ptr, ...) @H5E_printf_stack(ptr noundef @.str, ptr noundef @__func__.H5L__exists_api_common, i32 noundef 1137, i64 noundef %47, i64 noundef %48, ptr noundef @.str.107)
  br label %50

50:                                               ; preds = %46
  br label %51

51:                                               ; preds = %50
  store i8 1, ptr %18, align 1, !tbaa !14
  %52 = load i8, ptr %18, align 1, !tbaa !14, !range !16, !noundef !17
  %53 = trunc i8 %52 to i1
  %54 = zext i1 %53 to i8
  store i8 %54, ptr %18, align 1, !tbaa !14
  br label %55

55:                                               ; preds = %51
  br label %56

56:                                               ; preds = %55
  br label %57

57:                                               ; preds = %56
  store i32 -1, ptr %17, align 4, !tbaa !12
  br label %119

58:                                               ; No predecessors!
  br label %59

59:                                               ; preds = %58
  br label %60

60:                                               ; preds = %59
  br label %61

61:                                               ; preds = %60
  br label %62

62:                                               ; preds = %61, %40
  %63 = load i64, ptr %7, align 8, !tbaa !3
  %64 = load ptr, ptr %8, align 8, !tbaa !7
  %65 = load i64, ptr %10, align 8, !tbaa !3
  %66 = load ptr, ptr %14, align 8, !tbaa !23
  %67 = call i32 @H5VL_setup_name_args(i64 noundef %63, ptr noundef %64, i1 noundef zeroext false, i64 noundef %65, ptr noundef %66, ptr noundef %16)
  %68 = icmp slt i32 %67, 0
  br i1 %68, label %69, label %88

69:                                               ; preds = %62
  br label %70

70:                                               ; preds = %69
  br label %71

71:                                               ; preds = %70
  br label %72

72:                                               ; preds = %71
  %73 = load i64, ptr @H5E_LINK_g, align 8, !tbaa !3
  %74 = load i64, ptr @H5E_CANTSET_g, align 8, !tbaa !3
  %75 = call i32 (ptr, ptr, i32, i64, i64, ptr, ...) @H5E_printf_stack(ptr noundef @.str, ptr noundef @__func__.H5L__exists_api_common, i32 noundef 1141, i64 noundef %73, i64 noundef %74, ptr noundef @.str.98)
  br label %76

76:                                               ; preds = %72
  br label %77

77:                                               ; preds = %76
  store i8 1, ptr %18, align 1, !tbaa !14
  %78 = load i8, ptr %18, align 1, !tbaa !14, !range !16, !noundef !17
  %79 = trunc i8 %78 to i1
  %80 = zext i1 %79 to i8
  store i8 %80, ptr %18, align 1, !tbaa !14
  br label %81

81:                                               ; preds = %77
  br label %82

82:                                               ; preds = %81
  br label %83

83:                                               ; preds = %82
  store i32 -1, ptr %17, align 4, !tbaa !12
  br label %119

84:                                               ; No predecessors!
  br label %85

85:                                               ; preds = %84
  br label %86

86:                                               ; preds = %85
  br label %87

87:                                               ; preds = %86
  br label %88

88:                                               ; preds = %87, %62
  %89 = getelementptr inbounds nuw %struct.H5VL_link_specific_args_t, ptr %15, i32 0, i32 0
  store i32 1, ptr %89, align 8, !tbaa !31
  %90 = load ptr, ptr %9, align 8, !tbaa !35
  %91 = getelementptr inbounds nuw %struct.H5VL_link_specific_args_t, ptr %15, i32 0, i32 1
  %92 = getelementptr inbounds nuw %struct.anon.8, ptr %91, i32 0, i32 0
  store ptr %90, ptr %92, align 8, !tbaa !18
  %93 = load ptr, ptr %14, align 8, !tbaa !23
  %94 = load ptr, ptr %93, align 8, !tbaa !10
  %95 = load i64, ptr @H5P_LST_DATASET_XFER_ID_g, align 8, !tbaa !3
  %96 = load ptr, ptr %11, align 8, !tbaa !22
  %97 = call i32 @H5VL_link_specific(ptr noundef %94, ptr noundef %16, ptr noundef %15, i64 noundef %95, ptr noundef %96)
  %98 = icmp slt i32 %97, 0
  br i1 %98, label %99, label %118

99:                                               ; preds = %88
  br label %100

100:                                              ; preds = %99
  br label %101

101:                                              ; preds = %100
  br label %102

102:                                              ; preds = %101
  %103 = load i64, ptr @H5E_LINK_g, align 8, !tbaa !3
  %104 = load i64, ptr @H5E_CANTGET_g, align 8, !tbaa !3
  %105 = call i32 (ptr, ptr, i32, i64, i64, ptr, ...) @H5E_printf_stack(ptr noundef @.str, ptr noundef @__func__.H5L__exists_api_common, i32 noundef 1149, i64 noundef %103, i64 noundef %104, ptr noundef @.str.65)
  br label %106

106:                                              ; preds = %102
  br label %107

107:                                              ; preds = %106
  store i8 1, ptr %18, align 1, !tbaa !14
  %108 = load i8, ptr %18, align 1, !tbaa !14, !range !16, !noundef !17
  %109 = trunc i8 %108 to i1
  %110 = zext i1 %109 to i8
  store i8 %110, ptr %18, align 1, !tbaa !14
  br label %111

111:                                              ; preds = %107
  br label %112

112:                                              ; preds = %111
  br label %113

113:                                              ; preds = %112
  store i32 -1, ptr %17, align 4, !tbaa !12
  br label %119

114:                                              ; No predecessors!
  br label %115

115:                                              ; preds = %114
  br label %116

116:                                              ; preds = %115
  br label %117

117:                                              ; preds = %116
  br label %118

118:                                              ; preds = %117, %88
  br label %119

119:                                              ; preds = %118, %113, %83, %57
  br label %120

120:                                              ; preds = %119, %32
  %121 = load i32, ptr %17, align 4, !tbaa !12
  call void @llvm.lifetime.end.p0(i64 1, ptr %18) #8
  call void @llvm.lifetime.end.p0(i64 4, ptr %17) #8
  call void @llvm.lifetime.end.p0(i64 40, ptr %16) #8
  call void @llvm.lifetime.end.p0(i64 48, ptr %15) #8
  call void @llvm.lifetime.end.p0(i64 8, ptr %14) #8
  call void @llvm.lifetime.end.p0(i64 8, ptr %13) #8
  ret i32 %121
}