; Function Attrs: nounwind uwtable
define internal fastcc range(i32 -1, 1) i32 @H5L__exists_api_common(i64 noundef %0, ptr noundef %1, ptr noundef %2, i64 noundef %3, ptr noundef %4, ptr noundef %5) unnamed_addr #0 {
  %7 = alloca ptr, align 8
  %8 = alloca %struct.H5VL_link_specific_args_t, align 8
  %9 = alloca %struct.H5VL_loc_params_t, align 8
  call void @llvm.lifetime.start.p0(i64 8, ptr nonnull %7) #7
  store ptr null, ptr %7, align 8, !tbaa !20
  %.not = icmp eq ptr %5, null
  %10 = select i1 %.not, ptr %7, ptr %5
  call void @llvm.lifetime.start.p0(i64 48, ptr nonnull %8) #7
  call void @llvm.lifetime.start.p0(i64 40, ptr nonnull %9) #7
  %11 = load i8, ptr @H5L_init_g, align 1, !tbaa !7, !range !9, !noundef !10
  %12 = trunc nuw i8 %11 to i1
  %13 = load i8, ptr @H5_libterm_g, align 1, !range !9
  %14 = trunc nuw i8 %13 to i1
  %15 = xor i1 %14, true
  %16 = select i1 %12, i1 true, i1 %15
  br i1 %16, label %17, label %40, !prof !11

17:                                               ; preds = %6
  %18 = icmp eq ptr %2, null
  br i1 %18, label %19, label %23

19:                                               ; preds = %17
  %20 = load i64, ptr @H5E_ARGS_g, align 8, !tbaa !3
  %21 = load i64, ptr @H5E_BADVALUE_g, align 8, !tbaa !3
  %22 = tail call i32 (ptr, ptr, i32, i64, i64, ptr, ...) @H5E_printf_stack(ptr noundef nonnull @.str, ptr noundef nonnull @__func__.H5L__exists_api_common, i32 noundef 1137, i64 noundef %20, i64 noundef %21, ptr noundef nonnull @.str.107) #7
  br label %40

23:                                               ; preds = %17
  %24 = call i32 @H5VL_setup_name_args(i64 noundef %0, ptr noundef %1, i1 noundef zeroext false, i64 noundef %3, ptr noundef nonnull %10, ptr noundef nonnull %9) #7
  %25 = icmp slt i32 %24, 0
  br i1 %25, label %26, label %30

26:                                               ; preds = %23
  %27 = load i64, ptr @H5E_LINK_g, align 8, !tbaa !3
  %28 = load i64, ptr @H5E_CANTSET_g, align 8, !tbaa !3
  %29 = call i32 (ptr, ptr, i32, i64, i64, ptr, ...) @H5E_printf_stack(ptr noundef nonnull @.str, ptr noundef nonnull @__func__.H5L__exists_api_common, i32 noundef 1141, i64 noundef %27, i64 noundef %28, ptr noundef nonnull @.str.98) #7
  br label %40

30:                                               ; preds = %23
  store i32 1, ptr %8, align 8, !tbaa !28
  %31 = getelementptr inbounds nuw i8, ptr %8, i64 8
  store ptr %2, ptr %31, align 8, !tbaa !14
  %32 = load ptr, ptr %10, align 8, !tbaa !20
  %33 = load i64, ptr @H5P_LST_DATASET_XFER_ID_g, align 8, !tbaa !3
  %34 = call i32 @H5VL_link_specific(ptr noundef %32, ptr noundef nonnull %9, ptr noundef nonnull %8, i64 noundef %33, ptr noundef %4) #7
  %35 = icmp slt i32 %34, 0
  br i1 %35, label %36, label %40

36:                                               ; preds = %30
  %37 = load i64, ptr @H5E_LINK_g, align 8, !tbaa !3
  %38 = load i64, ptr @H5E_CANTGET_g, align 8, !tbaa !3
  %39 = call i32 (ptr, ptr, i32, i64, i64, ptr, ...) @H5E_printf_stack(ptr noundef nonnull @.str, ptr noundef nonnull @__func__.H5L__exists_api_common, i32 noundef 1149, i64 noundef %37, i64 noundef %38, ptr noundef nonnull @.str.65) #7
  br label %40

40:                                               ; preds = %19, %26, %36, %30, %6
  %.0 = phi i32 [ -1, %19 ], [ -1, %26 ], [ -1, %36 ], [ 0, %30 ], [ 0, %6 ]
  call void @llvm.lifetime.end.p0(i64 40, ptr nonnull %9) #7
  call void @llvm.lifetime.end.p0(i64 48, ptr nonnull %8) #7
  call void @llvm.lifetime.end.p0(i64 8, ptr nonnull %7) #7
  ret i32 %.0
}